target datalayout = "e-m:e-p270:32:32-p271:32:32-p272:64:64-i64:64-i128:128-f80:128-n8:16:32:64-S128"
target triple = "x86_64-pc-linux-gnu"

%struct.QMetaObject = type { %"struct.QMetaObject::Data" }
%"struct.QMetaObject::Data" = type { %"struct.QMetaObject::SuperData", ptr, ptr, ptr, ptr, ptr, ptr }
%"struct.QMetaObject::SuperData" = type { ptr }
%class.FilterAction = type { %class.QAction, i32, i32, i32, %class.QString }
%class.QAction = type { %class.QObject }
%class.QObject = type { ptr, %class.QScopedPointer }
%class.QScopedPointer = type { ptr }
%class.QString = type { %struct.QArrayDataPointer }
%struct.QArrayDataPointer = type { ptr, ptr, i64 }

@_ZTV12FilterAction = external unnamed_addr constant { [14 x ptr] }, align 8
@.str.6 = private unnamed_addr constant [8 x i8] c"UNKNOWN\00", align 1
@.str.13 = private unnamed_addr constant [8 x i8] c"A \E2\86\94 B\00", align 1
@.str.14 = private unnamed_addr constant [8 x i8] c"A \E2\86\92 B\00", align 1
@.str.15 = private unnamed_addr constant [8 x i8] c"B \E2\86\92 A\00", align 1
@.str.16 = private unnamed_addr constant [10 x i8] c"A \E2\86\94 Any\00", align 1
@.str.17 = private unnamed_addr constant [10 x i8] c"A \E2\86\92 Any\00", align 1
@.str.18 = private unnamed_addr constant [10 x i8] c"Any \E2\86\92 A\00", align 1
@.str.19 = private unnamed_addr constant [10 x i8] c"Any \E2\86\94 B\00", align 1
@.str.20 = private unnamed_addr constant [10 x i8] c"Any \E2\86\92 B\00", align 1
@.str.21 = private unnamed_addr constant [10 x i8] c"B \E2\86\92 Any\00", align 1
@_ZN7QObject16staticMetaObjectE = external global %struct.QMetaObject, align 8

; Function Attrs: inlinehint mustprogress null_pointer_is_valid sspstrong uwtable
define linkonce_odr void @_ZN7QObject2trEPKcS1_i(ptr dead_on_unwind noalias writable sret(%class.QString) align 8 %0, ptr noundef %1, ptr noundef %2, i32 noundef %3) #8 comdat align 2 {
  %5 = alloca ptr, align 8
  %6 = alloca ptr, align 8
  %7 = alloca ptr, align 8
  %8 = alloca i32, align 4
  store ptr %0, ptr %5, align 8
  store ptr %1, ptr %6, align 8
  store ptr %2, ptr %7, align 8
  store i32 %3, ptr %8, align 4
  %9 = load ptr, ptr %6, align 8
  %10 = load ptr, ptr %7, align 8
  %11 = load i32, ptr %8, align 4
  call void @_ZNK11QMetaObject2trEPKcS1_i(ptr dead_on_unwind writable sret(%class.QString) align 8 %0, ptr noundef align 8 dereferenceable_or_null(56) @_ZN7QObject16staticMetaObjectE, ptr noundef %9, ptr noundef %10, i32 noundef %11)
  ret void
}

; Function Attrs: mustprogress nounwind null_pointer_is_valid sspstrong uwtable
define linkonce_odr void @_ZN17QArrayDataPointerIDsEC2Ev(ptr noundef align 8 dereferenceable_or_null(24) %0) unnamed_addr #7 comdat align 2 {
  %2 = alloca ptr, align 8
  store ptr %0, ptr %2, align 8
  %3 = load ptr, ptr %2, align 8
  %4 = getelementptr inbounds nuw %struct.QArrayDataPointer, ptr %3, i32 0, i32 0
  store ptr null, ptr %4, align 8
  %5 = getelementptr inbounds nuw %struct.QArrayDataPointer, ptr %3, i32 0, i32 1
  store ptr null, ptr %5, align 8
  %6 = getelementptr inbounds nuw %struct.QArrayDataPointer, ptr %3, i32 0, i32 2
  store i64 0, ptr %6, align 8
  ret void
}

; Function Attrs: mustprogress null_pointer_is_valid sspstrong uwtable
define void @_ZN12FilterAction19actionDirectionNameENS_15ActionDirectionE(ptr dead_on_unwind noalias writable sret(%class.QString) align 8 %0, i32 noundef %1) #0 align 2 {
  %3 = alloca ptr, align 8
  %4 = alloca i32, align 4
  store ptr %0, ptr %3, align 8
  store i32 %1, ptr %4, align 4
  %5 = load i32, ptr %4, align 4
  switch i32 %5, label %15 [
    i32 0, label %6
    i32 1, label %7
    i32 2, label %8
    i32 3, label %9
    i32 4, label %10
    i32 5, label %11
    i32 6, label %12
    i32 7, label %13
    i32 8, label %14
  ]

6:                                                ; preds = %2
  call void @_ZN7QObject2trEPKcS1_i(ptr dead_on_unwind writable sret(%class.QString) align 8 %0, ptr noundef @.str.13, ptr noundef null, i32 noundef -1)
  br label %16

7:                                                ; preds = %2
  call void @_ZN7QObject2trEPKcS1_i(ptr dead_on_unwind writable sret(%class.QString) align 8 %0, ptr noundef @.str.14, ptr noundef null, i32 noundef -1)
  br label %16

8:                                                ; preds = %2
  call void @_ZN7QObject2trEPKcS1_i(ptr dead_on_unwind writable sret(%class.QString) align 8 %0, ptr noundef @.str.15, ptr noundef null, i32 noundef -1)
  br label %16

9:                                                ; preds = %2
  call void @_ZN7QObject2trEPKcS1_i(ptr dead_on_unwind writable sret(%class.QString) align 8 %0, ptr noundef @.str.16, ptr noundef null, i32 noundef -1)
  br label %16

10:                                               ; preds = %2
  call void @_ZN7QObject2trEPKcS1_i(ptr dead_on_unwind writable sret(%class.QString) align 8 %0, ptr noundef @.str.17, ptr noundef null, i32 noundef -1)
  br label %16

11:                                               ; preds = %2
  call void @_ZN7QObject2trEPKcS1_i(ptr dead_on_unwind writable sret(%class.QString) align 8 %0, ptr noundef @.str.18, ptr noundef null, i32 noundef -1)
  br label %16

12:                                               ; preds = %2
  call void @_ZN7QObject2trEPKcS1_i(ptr dead_on_unwind writable sret(%class.QString) align 8 %0, ptr noundef @.str.19, ptr noundef null, i32 noundef -1)
  br label %16

13:                                               ; preds = %2
  call void @_ZN7QObject2trEPKcS1_i(ptr dead_on_unwind writable sret(%class.QString) align 8 %0, ptr noundef @.str.20, ptr noundef null, i32 noundef -1)
  br label %16

14:                                               ; preds = %2
  call void @_ZN7QObject2trEPKcS1_i(ptr dead_on_unwind writable sret(%class.QString) align 8 %0, ptr noundef @.str.21, ptr noundef null, i32 noundef -1)
  br label %16

15:                                               ; preds = %2
  call void @_ZN7QObject2trEPKcS1_i(ptr dead_on_unwind writable sret(%class.QString) align 8 %0, ptr noundef @.str.6, ptr noundef null, i32 noundef -1)
  br label %16

16:                                               ; preds = %15, %14, %13, %12, %11, %10, %9, %8, %7, %6
  ret void
}

; Function Attrs: inlinehint mustprogress nounwind null_pointer_is_valid sspstrong uwtable
define linkonce_odr void @_ZN7QStringC2Ev(ptr noundef align 8 dereferenceable_or_null(24) %0) unnamed_addr #2 comdat align 2 {
  %2 = alloca ptr, align 8
  store ptr %0, ptr %2, align 8
  %3 = load ptr, ptr %2, align 8
  %4 = getelementptr inbounds nuw %class.QString, ptr %3, i32 0, i32 0
  call void @_ZN17QArrayDataPointerIDsEC2Ev(ptr noundef align 8 dereferenceable_or_null(24) %4) #5
  ret void
}

; Function Attrs: mustprogress null_pointer_is_valid sspstrong uwtable
define void @_ZN12FilterActionC2EP7QObjectNS_6ActionENS_10ActionTypeENS_15ActionDirectionE(ptr noundef align 8 dereferenceable_or_null(56) %0, ptr noundef %1, i32 noundef %2, i32 noundef %3, i32 noundef %4) unnamed_addr #0 align 2 personality ptr @__gxx_personality_v0 {
  %6 = alloca ptr, align 8
  %7 = alloca ptr, align 8
  %8 = alloca i32, align 4
  %9 = alloca i32, align 4
  %10 = alloca i32, align 4
  %11 = alloca %class.QString, align 8
  %12 = alloca ptr, align 8
  %13 = alloca i32, align 4
  store ptr %0, ptr %6, align 8
  store ptr %1, ptr %7, align 8
  store i32 %2, ptr %8, align 4
  store i32 %3, ptr %9, align 4
  store i32 %4, ptr %10, align 4
  %14 = load ptr, ptr %6, align 8
  %15 = load ptr, ptr %7, align 8
  call void @_ZN7QActionC2EP7QObject(ptr noundef align 8 dereferenceable_or_null(16) %14, ptr noundef %15)
  store ptr getelementptr inbounds inrange(-16, 96) ({ [14 x ptr] }, ptr @_ZTV12FilterAction, i32 0, i32 0, i32 2), ptr %14, align 8
  %16 = getelementptr inbounds nuw %class.FilterAction, ptr %14, i32 0, i32 1
  %17 = load i32, ptr %8, align 4
  store i32 %17, ptr %16, align 8
  %18 = getelementptr inbounds nuw %class.FilterAction, ptr %14, i32 0, i32 2
  %19 = load i32, ptr %9, align 4
  store i32 %19, ptr %18, align 4
  %20 = getelementptr inbounds nuw %class.FilterAction, ptr %14, i32 0, i32 3
  %21 = load i32, ptr %10, align 4
  store i32 %21, ptr %20, align 8
  %22 = getelementptr inbounds nuw %class.FilterAction, ptr %14, i32 0, i32 4
  call void @_ZN7QStringC2Ev(ptr noundef align 8 dereferenceable_or_null(24) %22) #5
  call void @llvm.lifetime.start.p0(i64 24, ptr %11) #5
  %23 = load i32, ptr %10, align 4
  invoke void @_ZN12FilterAction19actionDirectionNameENS_15ActionDirectionE(ptr dead_on_unwind writable sret(%class.QString) align 8 %11, i32 noundef %23)
          to label %24 unwind label %26

24:                                               ; preds = %5
  invoke void @_ZN7QAction7setTextERK7QString(ptr noundef align 8 dereferenceable_or_null(16) %14, ptr noundef align 8 dereferenceable(24) %11)
          to label %25 unwind label %30

25:                                               ; preds = %24
  call void @_ZN7QStringD2Ev(ptr noundef align 8 dereferenceable_or_null(24) %11) #5
  call void @llvm.lifetime.end.p0(i64 24, ptr %11) #5
  ret void

26:                                               ; preds = %5
  %27 = landingpad { ptr, i32 }
          cleanup
  %28 = extractvalue { ptr, i32 } %27, 0
  store ptr %28, ptr %12, align 8
  %29 = extractvalue { ptr, i32 } %27, 1
  store i32 %29, ptr %13, align 4
  br label %34

30:                                               ; preds = %24
  %31 = landingpad { ptr, i32 }
          cleanup
  %32 = extractvalue { ptr, i32 } %31, 0
  store ptr %32, ptr %12, align 8
  %33 = extractvalue { ptr, i32 } %31, 1
  store i32 %33, ptr %13, align 4
  call void @_ZN7QStringD2Ev(ptr noundef align 8 dereferenceable_or_null(24) %11) #5
  br label %34

34:                                               ; preds = %30, %26
  call void @llvm.lifetime.end.p0(i64 24, ptr %11) #5
  call void @_ZN7QStringD2Ev(ptr noundef align 8 dereferenceable_or_null(24) %22) #5
  call void @_ZN7QActionD2Ev(ptr noundef align 8 dereferenceable_or_null(16) %14) #5
  br label %35

35:                                               ; preds = %34
  %36 = load ptr, ptr %12, align 8
  %37 = load i32, ptr %13, align 4
  %38 = insertvalue { ptr, i32 } poison, ptr %36, 0
  %39 = insertvalue { ptr, i32 } %38, i32 %37, 1
  resume { ptr, i32 } %39
}