; Function Attrs: mustprogress null_pointer_is_valid sspstrong uwtable
define void @_ZN12FilterActionC2EP7QObjectNS_6ActionENS_10ActionTypeENS_15ActionDirectionE(ptr noundef align 8 dereferenceable_or_null(56) %0, ptr noundef %1, i32 noundef %2, i32 noundef %3, i32 noundef %4) unnamed_addr #0 align 2 personality ptr @__gxx_personality_v0 {
  %6 = alloca %class.QString, align 8
  tail call void @_ZN7QActionC2EP7QObject(ptr noundef align 8 dereferenceable_or_null(16) %0, ptr noundef %1)
  store ptr getelementptr inbounds nuw inrange(-16, 96) (i8, ptr @_ZTV12FilterAction, i64 16), ptr %0, align 8
  %7 = getelementptr inbounds nuw i8, ptr %0, i64 16
  store i32 %2, ptr %7, align 8
  %8 = getelementptr inbounds nuw i8, ptr %0, i64 20
  store i32 %3, ptr %8, align 4
  %9 = getelementptr inbounds nuw i8, ptr %0, i64 24
  store i32 %4, ptr %9, align 8
  %10 = getelementptr inbounds nuw i8, ptr %0, i64 32
  tail call void @llvm.memset.p0.i64(ptr noundef nonnull align 8 dereferenceable(24) dereferenceable_or_null(24) %10, i8 0, i64 24, i1 false)
  call void @llvm.lifetime.start.p0(i64 24, ptr nonnull %6) #20
  %11 = icmp ult i32 %4, 9
  br i1 %11, label %switch.lookup, label %13

switch.lookup:                                    ; preds = %5
  %12 = zext nneg i32 %4 to i64
  %switch.gep = getelementptr inbounds nuw [9 x ptr], ptr @switch.table._ZN12FilterAction19actionDirectionNameENS_15ActionDirectionE, i64 0, i64 %12
  %switch.load = load ptr, ptr %switch.gep, align 8
  br label %13

13:                                               ; preds = %5, %switch.lookup
  %.str.6.sink.i = phi ptr [ %switch.load, %switch.lookup ], [ @.str.6, %5 ]
  invoke void @_ZNK11QMetaObject2trEPKcS1_i(ptr dead_on_unwind nonnull writable sret(%class.QString) align 8 %6, ptr noundef nonnull align 8 dereferenceable_or_null(56) @_ZN7QObject16staticMetaObjectE, ptr noundef nonnull %.str.6.sink.i, ptr noundef null, i32 noundef -1)
          to label %_ZN12FilterAction19actionDirectionNameENS_15ActionDirectionE.exit unwind label %19

_ZN12FilterAction19actionDirectionNameENS_15ActionDirectionE.exit: ; preds = %13
  invoke void @_ZN7QAction7setTextERK7QString(ptr noundef align 8 dereferenceable_or_null(16) %0, ptr noundef nonnull align 8 dereferenceable(24) %6)
          to label %14 unwind label %21

14:                                               ; preds = %_ZN12FilterAction19actionDirectionNameENS_15ActionDirectionE.exit
  %15 = load ptr, ptr %6, align 8
  %.not.i.i.i = icmp eq ptr %15, null
  br i1 %.not.i.i.i, label %_ZN7QStringD2Ev.exit, label %_ZN17QArrayDataPointerIDsE5derefEv.exit.i.i

_ZN17QArrayDataPointerIDsE5derefEv.exit.i.i:      ; preds = %14
  %16 = atomicrmw sub ptr %15, i32 1 seq_cst, align 4
  %.not.i.i = icmp eq i32 %16, 1
  br i1 %.not.i.i, label %17, label %_ZN7QStringD2Ev.exit

17:                                               ; preds = %_ZN17QArrayDataPointerIDsE5derefEv.exit.i.i
  %18 = load ptr, ptr %6, align 8
  call void @_ZN10QArrayData10deallocateEPS_xx(ptr noundef %18, i64 noundef 2, i64 noundef 8) #20
  br label %_ZN7QStringD2Ev.exit

_ZN7QStringD2Ev.exit:                             ; preds = %14, %_ZN17QArrayDataPointerIDsE5derefEv.exit.i.i, %17
  call void @llvm.lifetime.end.p0(i64 24, ptr nonnull %6) #20
  ret void

19:                                               ; preds = %13
  %20 = landingpad { ptr, i32 }
          cleanup
  br label %_ZN7QStringD2Ev.exit12

21:                                               ; preds = %_ZN12FilterAction19actionDirectionNameENS_15ActionDirectionE.exit
  %22 = landingpad { ptr, i32 }
          cleanup
  %23 = load ptr, ptr %6, align 8
  %.not.i.i.i9 = icmp eq ptr %23, null
  br i1 %.not.i.i.i9, label %_ZN7QStringD2Ev.exit12, label %_ZN17QArrayDataPointerIDsE5derefEv.exit.i.i10

_ZN17QArrayDataPointerIDsE5derefEv.exit.i.i10:    ; preds = %21
  %24 = atomicrmw sub ptr %23, i32 1 seq_cst, align 4
  %.not.i.i11 = icmp eq i32 %24, 1
  br i1 %.not.i.i11, label %25, label %_ZN7QStringD2Ev.exit12

25:                                               ; preds = %_ZN17QArrayDataPointerIDsE5derefEv.exit.i.i10
  %26 = load ptr, ptr %6, align 8
  call void @_ZN10QArrayData10deallocateEPS_xx(ptr noundef %26, i64 noundef 2, i64 noundef 8) #20
  br label %_ZN7QStringD2Ev.exit12

_ZN7QStringD2Ev.exit12:                           ; preds = %25, %_ZN17QArrayDataPointerIDsE5derefEv.exit.i.i10, %21, %19
  %.pn = phi { ptr, i32 } [ %20, %19 ], [ %22, %21 ], [ %22, %_ZN17QArrayDataPointerIDsE5derefEv.exit.i.i10 ], [ %22, %25 ]
  call void @llvm.lifetime.end.p0(i64 24, ptr nonnull %6) #20
  call void @_ZN7QStringD2Ev(ptr noundef nonnull align 8 dereferenceable_or_null(24) %10) #20
  call void @_ZN7QActionD2Ev(ptr noundef align 8 dereferenceable_or_null(16) %0) #20
  resume { ptr, i32 } %.pn
}